; Function Attrs: inlinehint nofree norecurse nosync nounwind memory(read, argmem: readwrite, inaccessiblemem: none) uwtable
define internal fastcc i32 @get_unary(ptr noundef captures(none) %0, i32 noundef range(i32 0, 2) %1, i32 noundef range(i32 3, 15) %2) unnamed_addr #3 {
  %4 = getelementptr inbounds nuw i8, ptr %0, i64 16
  %5 = load ptr, ptr %0, align 8, !tbaa !15
  %6 = getelementptr inbounds nuw i8, ptr %0, i64 24
  %7 = load i32, ptr %6, align 8, !tbaa !14
  %.promoted = load i32, ptr %4, align 8, !tbaa !12
  br label %8

8:                                                ; preds = %3, %20
  %spec.select.i6 = phi i32 [ %.promoted, %3 ], [ %spec.select.i, %20 ]
  %.05 = phi i32 [ 0, %3 ], [ %21, %20 ]
  %9 = lshr i32 %spec.select.i6, 3
  %10 = zext nneg i32 %9 to i64
  %11 = getelementptr inbounds nuw i8, ptr %5, i64 %10
  %12 = load i8, ptr %11, align 1, !tbaa !11
  %13 = icmp slt i32 %spec.select.i6, %7
  %14 = zext i1 %13 to i32
  %spec.select.i = add i32 %spec.select.i6, %14
  %15 = zext i8 %12 to i32
  %16 = and i32 %spec.select.i6, 7
  %17 = shl nuw nsw i32 %15, %16
  %18 = lshr i32 %17, 7
  store i32 %spec.select.i, ptr %4, align 8, !tbaa !12
  %19 = and i32 %18, 1
  %.not = icmp eq i32 %19, %1
  br i1 %.not, label %.critedge, label %20

20:                                               ; preds = %8
  %21 = add nuw nsw i32 %.05, 1
  %exitcond.not = icmp eq i32 %21, %2
  br i1 %exitcond.not, label %.critedge, label %8, !llvm.loop !139

.critedge:                                        ; preds = %20, %8
  %.0.lcssa = phi i32 [ %2, %20 ], [ %.05, %8 ]
  ret i32 %.0.lcssa
}